; Function Attrs: mustprogress uwtable
define internal noundef zeroext i1 @_ZNK7testing8internal30ValuesInIteratorRangeGeneratorIN12_GLOBAL__N_16ZParamEE8Iterator6EqualsERKNS0_22ParamIteratorInterfaceIS3_EE(ptr noundef nonnull align 8 dereferenceable(32) %this, ptr noundef nonnull align 8 dereferenceable(8) %other) unnamed_addr #4 align 2 personality ptr @__gxx_personality_v0 {
entry:
  %ref.tmp.i = alloca %"class.testing::internal::GTestLog", align 4
  %ref.tmp = alloca %"class.testing::internal::GTestLog", align 4
  %vtable = load ptr, ptr %this, align 8
  %vfn = getelementptr inbounds i8, ptr %vtable, i64 16
  %0 = load ptr, ptr %vfn, align 8
  %call = tail call noundef ptr %0(ptr noundef nonnull align 8 dereferenceable(32) %this)
  %vtable2 = load ptr, ptr %other, align 8
  %vfn3 = getelementptr inbounds i8, ptr %vtable2, i64 16
  %1 = load ptr, ptr %vfn3, align 8
  %call4 = tail call noundef ptr %1(ptr noundef nonnull align 8 dereferenceable(8) %other)
  %cmp = icmp eq ptr %call, %call4
  %call5 = tail call noundef zeroext i1 @_ZN7testing8internal6IsTrueEb(i1 noundef zeroext %cmp)
  br i1 %call5, label %if.end, label %if.else

if.else:                                          ; preds = %entry
  call void @_ZN7testing8internal8GTestLogC1ENS0_16GTestLogSeverityEPKci(ptr noundef nonnull align 4 dereferenceable(4) %ref.tmp, i32 noundef 3, ptr noundef nonnull @.str.48, i32 noundef 345)
  %call7 = invoke noundef nonnull align 8 dereferenceable(8) ptr @_ZStlsISt11char_traitsIcEERSt13basic_ostreamIcT_ES5_PKc(ptr noundef nonnull align 8 dereferenceable(8) @_ZSt4cerr, ptr noundef nonnull @.str.49)
          to label %invoke.cont unwind label %lpad

invoke.cont:                                      ; preds = %if.else
  %call9 = invoke noundef nonnull align 8 dereferenceable(8) ptr @_ZStlsISt11char_traitsIcEERSt13basic_ostreamIcT_ES5_PKc(ptr noundef nonnull align 8 dereferenceable(8) %call7, ptr noundef nonnull @.str.50)
          to label %invoke.cont8 unwind label %lpad

invoke.cont8:                                     ; preds = %invoke.cont
  %call11 = invoke noundef nonnull align 8 dereferenceable(8) ptr @_ZStlsISt11char_traitsIcEERSt13basic_ostreamIcT_ES5_PKc(ptr noundef nonnull align 8 dereferenceable(8) %call9, ptr noundef nonnull @.str.51)
          to label %invoke.cont10 unwind label %lpad

invoke.cont10:                                    ; preds = %invoke.cont8
  %call13 = invoke noundef nonnull align 8 dereferenceable(8) ptr @_ZNSolsEPFRSoS_E(ptr noundef nonnull align 8 dereferenceable(8) %call11, ptr noundef nonnull @_ZSt4endlIcSt11char_traitsIcEERSt13basic_ostreamIT_T0_ES6_)
          to label %invoke.cont12 unwind label %lpad

invoke.cont12:                                    ; preds = %invoke.cont10
  call void @_ZN7testing8internal8GTestLogD1Ev(ptr noundef nonnull align 4 dereferenceable(4) %ref.tmp) #33
  br label %if.end

common.resume:                                    ; preds = %lpad.i, %lpad
  %ref.tmp.i.sink = phi ptr [ %ref.tmp.i, %lpad.i ], [ %ref.tmp, %lpad ]
  %common.resume.op = phi { ptr, i32 } [ %4, %lpad.i ], [ %2, %lpad ]
  call void @_ZN7testing8internal8GTestLogD1Ev(ptr noundef nonnull align 4 dereferenceable(4) %ref.tmp.i.sink) #33
  resume { ptr, i32 } %common.resume.op

lpad:                                             ; preds = %invoke.cont10, %invoke.cont8, %invoke.cont, %if.else
  %2 = landingpad { ptr, i32 }
          cleanup
  br label %common.resume

if.end:                                           ; preds = %entry, %invoke.cont12
  call void @llvm.lifetime.start.p0(i64 4, ptr nonnull %ref.tmp.i)
  %3 = call ptr @__dynamic_cast(ptr nonnull %other, ptr nonnull @_ZTIN7testing8internal22ParamIteratorInterfaceIN12_GLOBAL__N_16ZParamEEE, ptr nonnull @_ZTIN7testing8internal30ValuesInIteratorRangeGeneratorIN12_GLOBAL__N_16ZParamEE8IteratorE, i64 0) #33
  %cmp1.i = icmp ne ptr %3, null
  %call.i = call noundef zeroext i1 @_ZN7testing8internal6IsTrueEb(i1 noundef zeroext %cmp1.i)
  br i1 %call.i, label %_ZN7testing8internal27CheckedDowncastToActualTypeIKNS0_30ValuesInIteratorRangeGeneratorIN12_GLOBAL__N_16ZParamEE8IteratorEKNS0_22ParamIteratorInterfaceIS4_EEEEPT_PT0_.exit, label %if.else.i

if.else.i:                                        ; preds = %if.end
  call void @_ZN7testing8internal8GTestLogC1ENS0_16GTestLogSeverityEPKci(ptr noundef nonnull align 4 dereferenceable(4) %ref.tmp.i, i32 noundef 3, ptr noundef nonnull @.str.52, i32 noundef 1172)
  %call3.i = invoke noundef nonnull align 8 dereferenceable(8) ptr @_ZStlsISt11char_traitsIcEERSt13basic_ostreamIcT_ES5_PKc(ptr noundef nonnull align 8 dereferenceable(8) @_ZSt4cerr, ptr noundef nonnull @.str.53)
          to label %invoke.cont.i unwind label %lpad.i

invoke.cont.i:                                    ; preds = %if.else.i
  call void @_ZN7testing8internal8GTestLogD1Ev(ptr noundef nonnull align 4 dereferenceable(4) %ref.tmp.i) #33
  br label %_ZN7testing8internal27CheckedDowncastToActualTypeIKNS0_30ValuesInIteratorRangeGeneratorIN12_GLOBAL__N_16ZParamEE8IteratorEKNS0_22ParamIteratorInterfaceIS4_EEEEPT_PT0_.exit

lpad.i:                                           ; preds = %if.else.i
  %4 = landingpad { ptr, i32 }
          cleanup
  br label %common.resume

_ZN7testing8internal27CheckedDowncastToActualTypeIKNS0_30ValuesInIteratorRangeGeneratorIN12_GLOBAL__N_16ZParamEE8IteratorEKNS0_22ParamIteratorInterfaceIS4_EEEEPT_PT0_.exit: ; preds = %if.end, %invoke.cont.i
  %iterator_ = getelementptr inbounds i8, ptr %this, i64 16
  call void @llvm.lifetime.end.p0(i64 4, ptr nonnull %ref.tmp.i)
  %iterator_15 = getelementptr inbounds i8, ptr %other, i64 16
  %iterator_.val = load ptr, ptr %iterator_, align 8
  %iterator_15.val = load ptr, ptr %iterator_15, align 8
  %cmp.i = icmp eq ptr %iterator_.val, %iterator_15.val
  ret i1 %cmp.i
}